; Function Attrs: mustprogress nofree norecurse nosync nounwind memory(readwrite, inaccessiblemem: none) uwtable
define hidden void @_ZN19OpenColorIO_v2_5dev11Lut3DOpData5scaleEf(ptr noundef nonnull readonly align 8 captures(none) dereferenceable(232) %0, float noundef %1) local_unnamed_addr #9 align 2 {
  %3 = fcmp une float %1, 1.000000e+00
  br i1 %3, label %4, label %_ZN19OpenColorIO_v2_5dev6ArrayTIfE5scaleEf.exit

4:                                                ; preds = %2
  %5 = getelementptr inbounds nuw i8, ptr %0, i64 200
  %6 = getelementptr inbounds nuw i8, ptr %0, i64 208
  %7 = load ptr, ptr %6, align 8, !tbaa !100
  %8 = load ptr, ptr %5, align 8, !tbaa !81
  %.not.i = icmp eq ptr %7, %8
  br i1 %.not.i, label %_ZN19OpenColorIO_v2_5dev6ArrayTIfE5scaleEf.exit, label %.lr.ph.preheader.i

.lr.ph.preheader.i:                               ; preds = %4
  %9 = ptrtoint ptr %7 to i64
  %10 = ptrtoint ptr %8 to i64
  %11 = sub i64 %9, %10
  %12 = ashr exact i64 %11, 2
  %umax.i = tail call i64 @llvm.umax.i64(i64 %12, i64 1)
  br label %.lr.ph.i

.lr.ph.i:                                         ; preds = %.lr.ph.i, %.lr.ph.preheader.i
  %.07.i = phi i64 [ %16, %.lr.ph.i ], [ 0, %.lr.ph.preheader.i ]
  %13 = getelementptr inbounds nuw float, ptr %8, i64 %.07.i
  %14 = load float, ptr %13, align 4, !tbaa !92
  %15 = fmul float %1, %14
  store float %15, ptr %13, align 4, !tbaa !92
  %16 = add nuw i64 %.07.i, 1
  %exitcond.not.i = icmp eq i64 %16, %umax.i
  br i1 %exitcond.not.i, label %_ZN19OpenColorIO_v2_5dev6ArrayTIfE5scaleEf.exit, label %.lr.ph.i, !llvm.loop !139

_ZN19OpenColorIO_v2_5dev6ArrayTIfE5scaleEf.exit:  ; preds = %.lr.ph.i, %2, %4
  ret void
}